; Function Attrs: null_pointer_is_valid sspstrong uwtable
define internal zeroext i1 @uat_esp_sa_record_update_cb(ptr noundef captures(none) %0, ptr noundef captures(none) %1) #0 {
  %3 = getelementptr inbounds nuw i8, ptr %0, i64 48
  %4 = load ptr, ptr %3, align 8
  tail call void @g_free(ptr noundef %4)
  %5 = getelementptr inbounds nuw i8, ptr %0, i64 60
  %6 = load i8, ptr %5, align 4, !range !6, !noundef !7
  %7 = trunc nuw i8 %6 to i1
  br i1 %7, label %8, label %11

8:                                                ; preds = %2
  %9 = getelementptr inbounds nuw i8, ptr %0, i64 64
  %10 = load ptr, ptr %9, align 8
  tail call void @gcry_cipher_close(ptr noundef %10)
  store i8 0, ptr %5, align 4
  br label %11

11:                                               ; preds = %8, %2
  %12 = getelementptr inbounds nuw i8, ptr %0, i64 40
  %13 = load ptr, ptr %12, align 8
  %.not = icmp eq ptr %13, null
  br i1 %.not, label %16, label %14

14:                                               ; preds = %11
  %15 = tail call fastcc i32 @compute_ascii_key(ptr noundef nonnull %3, ptr noundef %13, ptr noundef %1)
  br label %17

16:                                               ; preds = %11
  store ptr null, ptr %3, align 8
  br label %17

17:                                               ; preds = %16, %14
  %.sink = phi i32 [ 0, %16 ], [ %15, %14 ]
  %18 = getelementptr inbounds nuw i8, ptr %0, i64 56
  store i32 %.sink, ptr %18, align 8
  %19 = getelementptr inbounds nuw i8, ptr %0, i64 88
  %20 = load ptr, ptr %19, align 8
  tail call void @g_free(ptr noundef %20)
  %21 = getelementptr inbounds nuw i8, ptr %0, i64 80
  %22 = load ptr, ptr %21, align 8
  %.not22 = icmp eq ptr %22, null
  br i1 %.not22, label %25, label %23

23:                                               ; preds = %17
  %24 = tail call fastcc i32 @compute_ascii_key(ptr noundef nonnull %19, ptr noundef %22, ptr noundef %1)
  br label %26

25:                                               ; preds = %17
  store ptr null, ptr %19, align 8
  br label %26

26:                                               ; preds = %25, %23
  %.sink23 = phi i32 [ 0, %25 ], [ %24, %23 ]
  %27 = getelementptr inbounds nuw i8, ptr %0, i64 96
  store i32 %.sink23, ptr %27, align 8
  %28 = load ptr, ptr %1, align 8
  %29 = icmp eq ptr %28, null
  ret i1 %29
}